; Function Attrs: mustprogress uwtable
define void @_ZNK5Ipopt14DenseSymMatrix18ComputeRowAMaxImplERNS_6VectorEb(ptr noundef nonnull readonly align 8 captures(none) dereferenceable(97) %0, ptr noundef nonnull align 8 dereferenceable(205) %1, i1 zeroext %2) unnamed_addr #1 align 2 {
  %4 = getelementptr inbounds nuw i8, ptr %1, i64 232
  %5 = load i8, ptr %4, align 8, !tbaa !46, !range !47, !noundef !48
  %6 = trunc nuw i8 %5 to i1
  br i1 %6, label %7, label %12

7:                                                ; preds = %3
  %8 = getelementptr inbounds nuw i8, ptr %1, i64 233
  %9 = load i8, ptr %8, align 1, !tbaa !49, !range !47, !noundef !48
  %10 = trunc nuw i8 %9 to i1
  br i1 %10, label %11, label %12

11:                                               ; preds = %7
  tail call void @_ZN5Ipopt11DenseVector22set_values_from_scalarEv(ptr noundef nonnull align 8 dereferenceable(248) %1)
  br label %12

12:                                               ; preds = %11, %7, %3
  tail call void @_ZN5Ipopt12TaggedObject13ObjectChangedEv(ptr noundef nonnull align 8 dereferenceable(248) %1)
  store i8 1, ptr %4, align 8, !tbaa !46
  %13 = getelementptr inbounds nuw i8, ptr %1, i64 233
  store i8 0, ptr %13, align 1, !tbaa !49
  %14 = getelementptr inbounds nuw i8, ptr %1, i64 216
  %15 = load ptr, ptr %14, align 8, !tbaa !37
  %16 = icmp eq ptr %15, null
  br i1 %16, label %17, label %_ZN5Ipopt11DenseVector6ValuesEv.exit

17:                                               ; preds = %12
  %18 = getelementptr inbounds nuw i8, ptr %1, i64 208
  %19 = load ptr, ptr %18, align 8, !tbaa !50
  %20 = getelementptr inbounds nuw i8, ptr %19, i64 12
  %21 = load i32, ptr %20, align 4, !tbaa !51
  %22 = icmp sgt i32 %21, 0
  br i1 %22, label %23, label %_ZNK5Ipopt16DenseVectorSpace23AllocateInternalStorageEv.exit.i.i

23:                                               ; preds = %17
  %24 = zext nneg i32 %21 to i64
  %25 = shl nuw nsw i64 %24, 3
  %26 = tail call noalias noundef nonnull ptr @_Znam(i64 noundef %25) #21
  br label %_ZNK5Ipopt16DenseVectorSpace23AllocateInternalStorageEv.exit.i.i

_ZNK5Ipopt16DenseVectorSpace23AllocateInternalStorageEv.exit.i.i: ; preds = %23, %17
  %.0.i.i.i = phi ptr [ %26, %23 ], [ null, %17 ]
  store ptr %.0.i.i.i, ptr %14, align 8, !tbaa !37
  br label %_ZN5Ipopt11DenseVector6ValuesEv.exit

_ZN5Ipopt11DenseVector6ValuesEv.exit:             ; preds = %12, %_ZNK5Ipopt16DenseVectorSpace23AllocateInternalStorageEv.exit.i.i
  %27 = phi ptr [ %15, %12 ], [ %.0.i.i.i, %_ZNK5Ipopt16DenseVectorSpace23AllocateInternalStorageEv.exit.i.i ]
  %28 = getelementptr inbounds nuw i8, ptr %0, i64 56
  %29 = load ptr, ptr %28, align 8, !tbaa !10
  %30 = getelementptr inbounds nuw i8, ptr %29, i64 12
  %31 = load i32, ptr %30, align 4, !tbaa !34
  %32 = icmp sgt i32 %31, 0
  br i1 %32, label %.preheader.preheader, label %._crit_edge

.preheader.preheader:                             ; preds = %_ZN5Ipopt11DenseVector6ValuesEv.exit
  %33 = getelementptr inbounds nuw i8, ptr %0, i64 88
  %34 = load ptr, ptr %33, align 8, !tbaa !35
  %wide.trip.count36 = zext nneg i32 %31 to i64
  br label %.preheader

.preheader:                                       ; preds = %.preheader.preheader, %36
  %indvars.iv31 = phi i64 [ 0, %.preheader.preheader ], [ %indvars.iv.next32, %36 ]
  %indvars.iv29 = phi i64 [ 1, %.preheader.preheader ], [ %indvars.iv.next30, %36 ]
  %.025 = phi ptr [ %34, %.preheader.preheader ], [ %45, %36 ]
  %35 = getelementptr inbounds nuw double, ptr %27, i64 %indvars.iv31
  br label %37

._crit_edge:                                      ; preds = %36, %_ZN5Ipopt11DenseVector6ValuesEv.exit
  ret void

36:                                               ; preds = %37
  %indvars.iv.next32 = add nuw nsw i64 %indvars.iv31, 1
  %indvars.iv.next30 = add nuw nsw i64 %indvars.iv29, 1
  %exitcond37.not = icmp eq i64 %indvars.iv.next32, %wide.trip.count36
  br i1 %exitcond37.not, label %._crit_edge, label %.preheader, !llvm.loop !113

37:                                               ; preds = %.preheader, %37
  %indvars.iv = phi i64 [ 0, %.preheader ], [ %indvars.iv.next, %37 ]
  %.123 = phi ptr [ %.025, %.preheader ], [ %45, %37 ]
  %38 = load double, ptr %.123, align 8, !tbaa !55
  %39 = tail call noundef double @llvm.fabs.f64(double %38)
  %40 = load double, ptr %35, align 8, !tbaa !55
  %41 = fcmp olt double %40, %39
  %.sroa.speculated.i = select i1 %41, double %39, double %40
  store double %.sroa.speculated.i, ptr %35, align 8, !tbaa !55
  %42 = getelementptr inbounds nuw double, ptr %27, i64 %indvars.iv
  %43 = load double, ptr %42, align 8, !tbaa !55
  %44 = fcmp olt double %43, %39
  %.sroa.speculated.i21 = select i1 %44, double %39, double %43
  store double %.sroa.speculated.i21, ptr %42, align 8, !tbaa !55
  %45 = getelementptr inbounds nuw i8, ptr %.123, i64 8
  %indvars.iv.next = add nuw nsw i64 %indvars.iv, 1
  %exitcond.not = icmp eq i64 %indvars.iv.next, %indvars.iv29
  br i1 %exitcond.not, label %36, label %37, !llvm.loop !114
}